target datalayout = "e-m:e-p270:32:32-p271:32:32-p272:64:64-i64:64-i128:128-f80:128-n8:16:32:64-S128"
target triple = "x86_64-pc-linux-gnu"

%struct.EnumerateOnePropertyData = type { ptr, ptr, i32 }

; Function Attrs: nounwind uwtable
define internal zeroext i1 @EnumerateOneProperty(ptr noundef %0, ptr noundef %1, ptr noundef %2, ptr noundef %3) #0 {
  %5 = alloca ptr, align 8
  %6 = alloca ptr, align 8
  %7 = alloca ptr, align 8
  %8 = alloca ptr, align 8
  %9 = alloca ptr, align 8
  store ptr %0, ptr %5, align 8
  store ptr %1, ptr %6, align 8
  store ptr %2, ptr %7, align 8
  store ptr %3, ptr %8, align 8
  call void @llvm.lifetime.start.p0(i64 8, ptr %9) #6
  %10 = load ptr, ptr %5, align 8
  store ptr %10, ptr %9, align 8
  %11 = load ptr, ptr %9, align 8
  %12 = getelementptr inbounds nuw %struct.EnumerateOnePropertyData, ptr %11, i32 0, i32 0
  %13 = load ptr, ptr %12, align 8
  %14 = load ptr, ptr %9, align 8
  %15 = getelementptr inbounds nuw %struct.EnumerateOnePropertyData, ptr %14, i32 0, i32 1
  %16 = load ptr, ptr %15, align 8
  %17 = load ptr, ptr %9, align 8
  %18 = getelementptr inbounds nuw %struct.EnumerateOnePropertyData, ptr %17, i32 0, i32 2
  %19 = load i32, ptr %18, align 8
  %20 = load ptr, ptr %7, align 8
  call void %13(ptr noundef %16, i32 noundef %19, ptr noundef %20)
  call void @llvm.lifetime.end.p0(i64 8, ptr %9) #6
  ret i1 true
}