; Function Attrs: nounwind uwtable
define internal noundef zeroext i1 @EnumerateOneProperty(ptr noundef readonly captures(none) %0, ptr readnone captures(none) %1, ptr noundef %2, ptr readnone captures(none) %3) #0 {
  %5 = load ptr, ptr %0, align 8
  %6 = getelementptr inbounds nuw i8, ptr %0, i64 8
  %7 = load ptr, ptr %6, align 8
  %8 = getelementptr inbounds nuw i8, ptr %0, i64 16
  %9 = load i32, ptr %8, align 8
  tail call void %5(ptr noundef %7, i32 noundef %9, ptr noundef %2) #6
  ret i1 true
}